target datalayout = "e-m:e-p270:32:32-p271:32:32-p272:64:64-i64:64-i128:128-f80:128-n8:16:32:64-S128"
target triple = "x86_64-pc-linux-gnu"

@.str = private unnamed_addr constant [5 x i8] c"-dev\00", align 1

; Function Attrs: nounwind uwtable
define void @exr_get_library_version(ptr noundef %0, ptr noundef %1, ptr noundef %2, ptr noundef %3) #0 {
  %5 = alloca ptr, align 8
  %6 = alloca ptr, align 8
  %7 = alloca ptr, align 8
  %8 = alloca ptr, align 8
  store ptr %0, ptr %5, align 8, !tbaa !3
  store ptr %1, ptr %6, align 8, !tbaa !3
  store ptr %2, ptr %7, align 8, !tbaa !3
  store ptr %3, ptr %8, align 8, !tbaa !8
  %9 = load ptr, ptr %5, align 8, !tbaa !3
  %10 = icmp ne ptr %9, null
  br i1 %10, label %11, label %13

11:                                               ; preds = %4
  %12 = load ptr, ptr %5, align 8, !tbaa !3
  store i32 3, ptr %12, align 4, !tbaa !11
  br label %13

13:                                               ; preds = %11, %4
  %14 = load ptr, ptr %6, align 8, !tbaa !3
  %15 = icmp ne ptr %14, null
  br i1 %15, label %16, label %18

16:                                               ; preds = %13
  %17 = load ptr, ptr %6, align 8, !tbaa !3
  store i32 4, ptr %17, align 4, !tbaa !11
  br label %18

18:                                               ; preds = %16, %13
  %19 = load ptr, ptr %7, align 8, !tbaa !3
  %20 = icmp ne ptr %19, null
  br i1 %20, label %21, label %23

21:                                               ; preds = %18
  %22 = load ptr, ptr %7, align 8, !tbaa !3
  store i32 0, ptr %22, align 4, !tbaa !11
  br label %23

23:                                               ; preds = %21, %18
  %24 = load ptr, ptr %8, align 8, !tbaa !8
  %25 = icmp ne ptr %24, null
  br i1 %25, label %26, label %28

26:                                               ; preds = %23
  %27 = load ptr, ptr %8, align 8, !tbaa !8
  store ptr @.str, ptr %27, align 8, !tbaa !13
  br label %28

28:                                               ; preds = %26, %23
  ret void
}