; Function Attrs: mustprogress nofree norecurse nosync nounwind willreturn memory(argmem: write) uwtable
define void @exr_get_library_version(ptr noundef writeonly %0, ptr noundef writeonly %1, ptr noundef writeonly %2, ptr noundef writeonly %3) local_unnamed_addr #0 {
  %.not = icmp eq ptr %0, null
  br i1 %.not, label %6, label %5

5:                                                ; preds = %4
  store i32 3, ptr %0, align 4, !tbaa !3
  br label %6

6:                                                ; preds = %5, %4
  %.not11 = icmp eq ptr %1, null
  br i1 %.not11, label %8, label %7

7:                                                ; preds = %6
  store i32 4, ptr %1, align 4, !tbaa !3
  br label %8

8:                                                ; preds = %7, %6
  %.not12 = icmp eq ptr %2, null
  br i1 %.not12, label %10, label %9

9:                                                ; preds = %8
  store i32 0, ptr %2, align 4, !tbaa !3
  br label %10

10:                                               ; preds = %9, %8
  %.not13 = icmp eq ptr %3, null
  br i1 %.not13, label %12, label %11

11:                                               ; preds = %10
  store ptr @.str, ptr %3, align 8, !tbaa !7
  br label %12

12:                                               ; preds = %11, %10
  ret void
}